target datalayout = "e-m:e-p270:32:32-p271:32:32-p272:64:64-i64:64-i128:128-f80:128-n8:16:32:64-S128"
target triple = "x86_64-pc-linux-gnu"

%struct.yyguts_t = type { ptr, ptr, ptr, i64, i64, ptr, i8, i32, i32, ptr, i32, i32, i32, i32, i32, ptr, i32, ptr, i32, i32, ptr, i32, i32 }
%struct.yy_buffer_state = type { ptr, ptr, ptr, i32, i32, i32, i32, i32, i32, i32, i32, i32 }

; Function Attrs: mustprogress nounwind uwtable
define dso_local noundef i32 @_Z25cmGccDepfile_yyget_linenoPv(ptr noundef %0) #1 {
  %2 = alloca i32, align 4
  %3 = alloca ptr, align 8
  %4 = alloca ptr, align 8
  store ptr %0, ptr %3, align 8
  %5 = load ptr, ptr %3, align 8
  store ptr %5, ptr %4, align 8
  %6 = load ptr, ptr %4, align 8
  %7 = getelementptr inbounds %struct.yyguts_t, ptr %6, i32 0, i32 5
  %8 = load ptr, ptr %7, align 8
  %9 = icmp ne ptr %8, null
  br i1 %9, label %10, label %19

10:                                               ; preds = %1
  %11 = load ptr, ptr %4, align 8
  %12 = getelementptr inbounds %struct.yyguts_t, ptr %11, i32 0, i32 5
  %13 = load ptr, ptr %12, align 8
  %14 = load ptr, ptr %4, align 8
  %15 = getelementptr inbounds %struct.yyguts_t, ptr %14, i32 0, i32 3
  %16 = load i64, ptr %15, align 8
  %17 = getelementptr inbounds ptr, ptr %13, i64 %16
  %18 = load ptr, ptr %17, align 8
  br label %20

19:                                               ; preds = %1
  br label %20

20:                                               ; preds = %19, %10
  %21 = phi ptr [ %18, %10 ], [ null, %19 ]
  %22 = icmp ne ptr %21, null
  br i1 %22, label %24, label %23

23:                                               ; preds = %20
  store i32 0, ptr %2, align 4
  br label %35

24:                                               ; preds = %20
  %25 = load ptr, ptr %4, align 8
  %26 = getelementptr inbounds %struct.yyguts_t, ptr %25, i32 0, i32 5
  %27 = load ptr, ptr %26, align 8
  %28 = load ptr, ptr %4, align 8
  %29 = getelementptr inbounds %struct.yyguts_t, ptr %28, i32 0, i32 3
  %30 = load i64, ptr %29, align 8
  %31 = getelementptr inbounds ptr, ptr %27, i64 %30
  %32 = load ptr, ptr %31, align 8
  %33 = getelementptr inbounds %struct.yy_buffer_state, ptr %32, i32 0, i32 8
  %34 = load i32, ptr %33, align 4
  store i32 %34, ptr %2, align 4
  br label %35

35:                                               ; preds = %24, %23
  %36 = load i32, ptr %2, align 4
  ret i32 %36
}